; Function Attrs: mustprogress uwtable
define noundef ptr @_ZN15XMLInteriorNode3sonEi(ptr noundef nonnull align 8 dereferenceable(24) %0, i32 noundef %1) local_unnamed_addr #2 align 2 personality ptr @__gxx_personality_v0 {
  %3 = getelementptr inbounds i8, ptr %0, i64 16
  %4 = load ptr, ptr %3, align 8
  %5 = load atomic i32, ptr %4 monotonic, align 4
  %6 = icmp ult i32 %5, 2
  br i1 %6, label %_ZN7QVectorIP7XMLNodeEixEi.exit, label %7

7:                                                ; preds = %2
  %8 = getelementptr inbounds i8, ptr %4, i64 8
  %9 = load i32, ptr %8, align 8
  %10 = and i32 %9, 2147483647
  %.not.i.i.i = icmp eq i32 %10, 0
  br i1 %.not.i.i.i, label %11, label %13

11:                                               ; preds = %7
  %12 = tail call noundef ptr @_ZN10QArrayData8allocateEmmm6QFlagsINS_16AllocationOptionEE(i64 noundef 8, i64 noundef 8, i64 noundef 0, i32 2) #11
  store ptr %12, ptr %3, align 8
  br label %_ZN7QVectorIP7XMLNodeEixEi.exit

13:                                               ; preds = %7
  tail call void @_ZN7QVectorIP7XMLNodeE7reallocEi6QFlagsIN10QArrayData16AllocationOptionEE(ptr noundef nonnull align 8 dereferenceable(8) %3, i32 noundef %10, i32 0)
  %.pre.i.i = load ptr, ptr %3, align 8
  br label %_ZN7QVectorIP7XMLNodeEixEi.exit

_ZN7QVectorIP7XMLNodeEixEi.exit:                  ; preds = %2, %11, %13
  %14 = phi ptr [ %4, %2 ], [ %12, %11 ], [ %.pre.i.i, %13 ]
  %15 = getelementptr inbounds i8, ptr %14, i64 16
  %16 = load i64, ptr %15, align 8
  %17 = getelementptr inbounds i8, ptr %14, i64 %16
  %18 = sext i32 %1 to i64
  %19 = getelementptr inbounds ptr, ptr %17, i64 %18
  %20 = load ptr, ptr %19, align 8
  ret ptr %20
}